target datalayout = "e-m:e-p270:32:32-p271:32:32-p272:64:64-i64:64-i128:128-f80:128-n8:16:32:64-S128"
target triple = "x86_64-pc-linux-gnu"

%struct._mq_parm_t = type { i32, i32, i32, i32, i32, i32, i32, i32, i32, i32, i32, i32, i32, i8, i8, i8, %struct._mq_ccsid_t, %struct._mq_ccsid_t, %struct._mq_ccsid_t, %struct._mq_ccsid_t, %struct._mq_ccsid_t, %struct._mq_ccsid_t, %struct._mq_ccsid_t, [8 x i8], i32, i32, i32 }
%struct._mq_ccsid_t = type { i32, i32 }

@hf_mq_pmr_msgid = internal global i32 0, align 4
@hf_mq_pmr_correlid = internal global i32 0, align 4
@hf_mq_pmr_groupid = internal global i32 0, align 4
@hf_mq_pmr_feedback = internal global i32 0, align 4
@hf_mq_pmr_acttoken = internal global i32 0, align 4
@ett_mq_pmr = internal global i32 0, align 4
@.str.1850 = private unnamed_addr constant [19 x i8] c"Put Message Record\00", align 1

; Function Attrs: null_pointer_is_valid sspstrong uwtable
define internal i32 @dissect_mq_pmr(ptr noundef %0, ptr noundef %1, i32 noundef %2, i32 noundef %3, i32 noundef %4, i32 noundef %5, ptr noundef %6) #0 {
  %8 = alloca ptr, align 8
  %9 = alloca ptr, align 8
  %10 = alloca i32, align 4
  %11 = alloca i32, align 4
  %12 = alloca i32, align 4
  %13 = alloca i32, align 4
  %14 = alloca ptr, align 8
  %15 = alloca i32, align 4
  %16 = alloca i32, align 4
  %17 = alloca i32, align 4
  %18 = alloca i32, align 4
  %19 = alloca ptr, align 8
  store ptr %0, ptr %8, align 8
  store ptr %1, ptr %9, align 8
  store i32 %2, ptr %10, align 4
  store i32 %3, ptr %11, align 4
  store i32 %4, ptr %12, align 4
  store i32 %5, ptr %13, align 4
  store ptr %6, ptr %14, align 8
  call void @llvm.lifetime.start.p0(i64 4, ptr %15) #9
  store i32 0, ptr %15, align 4
  call void @llvm.lifetime.start.p0(i64 4, ptr %16) #9
  store i32 0, ptr %16, align 4
  %20 = load i32, ptr %13, align 4
  %21 = and i32 %20, 1
  %22 = icmp ne i32 %21, 0
  %23 = zext i1 %22 to i32
  %24 = mul i32 %23, 24
  %25 = load i32, ptr %13, align 4
  %26 = and i32 %25, 2
  %27 = icmp ne i32 %26, 0
  %28 = zext i1 %27 to i32
  %29 = mul i32 %28, 24
  %30 = add i32 %24, %29
  %31 = load i32, ptr %13, align 4
  %32 = and i32 %31, 4
  %33 = icmp ne i32 %32, 0
  %34 = zext i1 %33 to i32
  %35 = mul i32 %34, 24
  %36 = add i32 %30, %35
  %37 = load i32, ptr %13, align 4
  %38 = and i32 %37, 8
  %39 = icmp ne i32 %38, 0
  %40 = zext i1 %39 to i32
  %41 = mul i32 %40, 4
  %42 = add i32 %36, %41
  %43 = load i32, ptr %13, align 4
  %44 = and i32 %43, 16
  %45 = icmp ne i32 %44, 0
  %46 = zext i1 %45 to i32
  %47 = mul i32 %46, 32
  %48 = add i32 %42, %47
  store i32 %48, ptr %15, align 4
  %49 = load i32, ptr %12, align 4
  %50 = icmp ne i32 %49, 0
  br i1 %50, label %51, label %156

51:                                               ; preds = %7
  %52 = load i32, ptr %15, align 4
  %53 = icmp ne i32 %52, 0
  br i1 %53, label %54, label %156

54:                                               ; preds = %51
  %55 = load i32, ptr %11, align 4
  %56 = load i32, ptr %15, align 4
  %57 = mul i32 %55, %56
  store i32 %57, ptr %16, align 4
  %58 = load ptr, ptr %8, align 8
  %59 = load i32, ptr %10, align 4
  %60 = call i32 @tvb_reported_length_remaining(ptr noundef %58, i32 noundef %59)
  %61 = load i32, ptr %16, align 4
  %62 = icmp sge i32 %60, %61
  br i1 %62, label %63, label %154

63:                                               ; preds = %54
  call void @llvm.lifetime.start.p0(i64 4, ptr %17) #9
  store i32 0, ptr %17, align 4
  call void @llvm.lifetime.start.p0(i64 4, ptr %18) #9
  store i32 0, ptr %18, align 4
  store i32 0, ptr %18, align 4
  br label %64

64:                                               ; preds = %150, %63
  %65 = load i32, ptr %18, align 4
  %66 = load i32, ptr %11, align 4
  %67 = icmp slt i32 %65, %66
  br i1 %67, label %68, label %153

68:                                               ; preds = %64
  call void @llvm.lifetime.start.p0(i64 8, ptr %19) #9
  %69 = load ptr, ptr %9, align 8
  %70 = load ptr, ptr %8, align 8
  %71 = load i32, ptr %10, align 4
  %72 = load i32, ptr %17, align 4
  %73 = add i32 %71, %72
  %74 = load i32, ptr %15, align 4
  %75 = load i32, ptr @ett_mq_pmr, align 4
  %76 = call ptr @proto_tree_add_subtree(ptr noundef %69, ptr noundef %70, i32 noundef %73, i32 noundef %74, i32 noundef %75, ptr noundef null, ptr noundef @.str.1850)
  store ptr %76, ptr %19, align 8
  %77 = load i32, ptr %13, align 4
  %78 = and i32 %77, 1
  %79 = icmp ne i32 %78, 0
  br i1 %79, label %80, label %90

80:                                               ; preds = %68
  %81 = load ptr, ptr %19, align 8
  %82 = load i32, ptr @hf_mq_pmr_msgid, align 4
  %83 = load ptr, ptr %8, align 8
  %84 = load i32, ptr %10, align 4
  %85 = load i32, ptr %17, align 4
  %86 = add i32 %84, %85
  %87 = call ptr @proto_tree_add_item(ptr noundef %81, i32 noundef %82, ptr noundef %83, i32 noundef %86, i32 noundef 24, i32 noundef 0)
  %88 = load i32, ptr %17, align 4
  %89 = add i32 %88, 24
  store i32 %89, ptr %17, align 4
  br label %90

90:                                               ; preds = %80, %68
  %91 = load i32, ptr %13, align 4
  %92 = and i32 %91, 2
  %93 = icmp ne i32 %92, 0
  br i1 %93, label %94, label %104

94:                                               ; preds = %90
  %95 = load ptr, ptr %19, align 8
  %96 = load i32, ptr @hf_mq_pmr_correlid, align 4
  %97 = load ptr, ptr %8, align 8
  %98 = load i32, ptr %10, align 4
  %99 = load i32, ptr %17, align 4
  %100 = add i32 %98, %99
  %101 = call ptr @proto_tree_add_item(ptr noundef %95, i32 noundef %96, ptr noundef %97, i32 noundef %100, i32 noundef 24, i32 noundef 0)
  %102 = load i32, ptr %17, align 4
  %103 = add i32 %102, 24
  store i32 %103, ptr %17, align 4
  br label %104

104:                                              ; preds = %94, %90
  %105 = load i32, ptr %13, align 4
  %106 = and i32 %105, 4
  %107 = icmp ne i32 %106, 0
  br i1 %107, label %108, label %118

108:                                              ; preds = %104
  %109 = load ptr, ptr %19, align 8
  %110 = load i32, ptr @hf_mq_pmr_groupid, align 4
  %111 = load ptr, ptr %8, align 8
  %112 = load i32, ptr %10, align 4
  %113 = load i32, ptr %17, align 4
  %114 = add i32 %112, %113
  %115 = call ptr @proto_tree_add_item(ptr noundef %109, i32 noundef %110, ptr noundef %111, i32 noundef %114, i32 noundef 24, i32 noundef 0)
  %116 = load i32, ptr %17, align 4
  %117 = add i32 %116, 24
  store i32 %117, ptr %17, align 4
  br label %118

118:                                              ; preds = %108, %104
  %119 = load i32, ptr %13, align 4
  %120 = and i32 %119, 8
  %121 = icmp ne i32 %120, 0
  br i1 %121, label %122, label %135

122:                                              ; preds = %118
  %123 = load ptr, ptr %19, align 8
  %124 = load i32, ptr @hf_mq_pmr_feedback, align 4
  %125 = load ptr, ptr %8, align 8
  %126 = load i32, ptr %10, align 4
  %127 = load i32, ptr %17, align 4
  %128 = add i32 %126, %127
  %129 = load ptr, ptr %14, align 8
  %130 = getelementptr inbounds nuw %struct._mq_parm_t, ptr %129, i32 0, i32 3
  %131 = load i32, ptr %130, align 4
  %132 = call ptr @proto_tree_add_item(ptr noundef %123, i32 noundef %124, ptr noundef %125, i32 noundef %128, i32 noundef 4, i32 noundef %131)
  %133 = load i32, ptr %17, align 4
  %134 = add i32 %133, 4
  store i32 %134, ptr %17, align 4
  br label %135

135:                                              ; preds = %122, %118
  %136 = load i32, ptr %13, align 4
  %137 = and i32 %136, 16
  %138 = icmp ne i32 %137, 0
  br i1 %138, label %139, label %149

139:                                              ; preds = %135
  %140 = load ptr, ptr %19, align 8
  %141 = load i32, ptr @hf_mq_pmr_acttoken, align 4
  %142 = load ptr, ptr %8, align 8
  %143 = load i32, ptr %10, align 4
  %144 = load i32, ptr %17, align 4
  %145 = add i32 %143, %144
  %146 = call ptr @proto_tree_add_item(ptr noundef %140, i32 noundef %141, ptr noundef %142, i32 noundef %145, i32 noundef 32, i32 noundef 0)
  %147 = load i32, ptr %17, align 4
  %148 = add i32 %147, 32
  store i32 %148, ptr %17, align 4
  br label %149

149:                                              ; preds = %139, %135
  call void @llvm.lifetime.end.p0(i64 8, ptr %19) #9
  br label %150

150:                                              ; preds = %149
  %151 = load i32, ptr %18, align 4
  %152 = add i32 %151, 1
  store i32 %152, ptr %18, align 4
  br label %64, !llvm.loop !17

153:                                              ; preds = %64
  call void @llvm.lifetime.end.p0(i64 4, ptr %18) #9
  call void @llvm.lifetime.end.p0(i64 4, ptr %17) #9
  br label %155

154:                                              ; preds = %54
  store i32 0, ptr %16, align 4
  br label %155

155:                                              ; preds = %154, %153
  br label %156

156:                                              ; preds = %155, %51, %7
  %157 = load i32, ptr %16, align 4
  call void @llvm.lifetime.end.p0(i64 4, ptr %16) #9
  call void @llvm.lifetime.end.p0(i64 4, ptr %15) #9
  ret i32 %157
}